target datalayout = "e-m:e-p270:32:32-p271:32:32-p272:64:64-i64:64-i128:128-f80:128-n8:16:32:64-S128"
target triple = "x86_64-pc-linux-gnu"

%struct.quic_port_args_st = type { ptr, ptr, ptr, ptr, i32, i32 }
%struct.quic_port_st = type { ptr, %struct.anon, ptr, ptr, ptr, ptr, ptr, ptr, %struct.ossl_list_st_ch, %struct.ossl_list_st_incoming_ch, ptr, ptr, ptr, ptr, i8, i8, i16, ptr }
%struct.anon = type { ptr, ptr }
%struct.ossl_list_st_ch = type { ptr, ptr, i64 }
%struct.ossl_list_st_incoming_ch = type { ptr, ptr, i64 }
%struct.quic_engine_st = type { ptr, ptr, ptr, ptr, ptr, %struct.quic_reactor_st, %struct.ossl_list_st_port, i8 }
%struct.quic_reactor_st = type { %struct.bio_poll_descriptor_st, %struct.bio_poll_descriptor_st, %struct.OSSL_TIME, ptr, ptr, ptr, %struct.rio_notifier_st, ptr, i64, i8 }
%struct.bio_poll_descriptor_st = type { i32, %union.anon.6 }
%union.anon.6 = type { ptr }
%struct.OSSL_TIME = type { i64 }
%struct.rio_notifier_st = type { i32, i32 }
%struct.ossl_list_st_port = type { ptr, ptr, i64 }

@.str = private unnamed_addr constant [32 x i8] c"../openssl/ssl/quic/quic_port.c\00", align 1
@.str.2 = private unnamed_addr constant [12 x i8] c"AES-256-GCM\00", align 1

; Function Attrs: inlinehint nounwind uwtable
define internal void @ossl_list_port_insert_tail(ptr noundef %0, ptr noundef %1) #3 {
  %3 = alloca ptr, align 8
  %4 = alloca ptr, align 8
  store ptr %0, ptr %3, align 8, !tbaa !208
  store ptr %1, ptr %4, align 8, !tbaa !8
  %5 = load ptr, ptr %3, align 8, !tbaa !208
  %6 = getelementptr inbounds nuw %struct.ossl_list_st_port, ptr %5, i32 0, i32 1
  %7 = load ptr, ptr %6, align 8, !tbaa !210
  %8 = icmp ne ptr %7, null
  br i1 %8, label %9, label %16

9:                                                ; preds = %2
  %10 = load ptr, ptr %4, align 8, !tbaa !8
  %11 = load ptr, ptr %3, align 8, !tbaa !208
  %12 = getelementptr inbounds nuw %struct.ossl_list_st_port, ptr %11, i32 0, i32 1
  %13 = load ptr, ptr %12, align 8, !tbaa !210
  %14 = getelementptr inbounds nuw %struct.quic_port_st, ptr %13, i32 0, i32 1
  %15 = getelementptr inbounds nuw %struct.anon, ptr %14, i32 0, i32 0
  store ptr %10, ptr %15, align 8, !tbaa !211
  br label %16

16:                                               ; preds = %9, %2
  %17 = load ptr, ptr %3, align 8, !tbaa !208
  %18 = getelementptr inbounds nuw %struct.ossl_list_st_port, ptr %17, i32 0, i32 1
  %19 = load ptr, ptr %18, align 8, !tbaa !210
  %20 = load ptr, ptr %4, align 8, !tbaa !8
  %21 = getelementptr inbounds nuw %struct.quic_port_st, ptr %20, i32 0, i32 1
  %22 = getelementptr inbounds nuw %struct.anon, ptr %21, i32 0, i32 1
  store ptr %19, ptr %22, align 8, !tbaa !212
  %23 = load ptr, ptr %4, align 8, !tbaa !8
  %24 = getelementptr inbounds nuw %struct.quic_port_st, ptr %23, i32 0, i32 1
  %25 = getelementptr inbounds nuw %struct.anon, ptr %24, i32 0, i32 0
  store ptr null, ptr %25, align 8, !tbaa !211
  %26 = load ptr, ptr %4, align 8, !tbaa !8
  %27 = load ptr, ptr %3, align 8, !tbaa !208
  %28 = getelementptr inbounds nuw %struct.ossl_list_st_port, ptr %27, i32 0, i32 1
  store ptr %26, ptr %28, align 8, !tbaa !210
  %29 = load ptr, ptr %3, align 8, !tbaa !208
  %30 = getelementptr inbounds nuw %struct.ossl_list_st_port, ptr %29, i32 0, i32 0
  %31 = load ptr, ptr %30, align 8, !tbaa !213
  %32 = icmp eq ptr %31, null
  br i1 %32, label %33, label %37

33:                                               ; preds = %16
  %34 = load ptr, ptr %4, align 8, !tbaa !8
  %35 = load ptr, ptr %3, align 8, !tbaa !208
  %36 = getelementptr inbounds nuw %struct.ossl_list_st_port, ptr %35, i32 0, i32 0
  store ptr %34, ptr %36, align 8, !tbaa !213
  br label %37

37:                                               ; preds = %33, %16
  %38 = load ptr, ptr %3, align 8, !tbaa !208
  %39 = getelementptr inbounds nuw %struct.ossl_list_st_port, ptr %38, i32 0, i32 2
  %40 = load i64, ptr %39, align 8, !tbaa !214
  %41 = add i64 %40, 1
  store i64 %41, ptr %39, align 8, !tbaa !214
  ret void
}

; Function Attrs: nounwind uwtable
define internal i32 @port_init(ptr noundef %0) #0 {
  %2 = alloca ptr, align 8
  %3 = alloca i64, align 8
  %4 = alloca i32, align 4
  %5 = alloca ptr, align 8
  %6 = alloca ptr, align 8
  %7 = alloca i32, align 4
  store ptr %0, ptr %2, align 8, !tbaa !8
  call void @llvm.lifetime.start.p0(i64 8, ptr %3) #8
  %8 = load ptr, ptr %2, align 8, !tbaa !8
  %9 = getelementptr inbounds nuw %struct.quic_port_st, ptr %8, i32 0, i32 16
  %10 = load i16, ptr %9, align 2
  %11 = lshr i16 %10, 1
  %12 = and i16 %11, 1
  %13 = zext i16 %12 to i32
  %14 = icmp ne i32 %13, 0
  %15 = select i1 %14, i32 8, i32 0
  %16 = sext i32 %15 to i64
  store i64 %16, ptr %3, align 8, !tbaa !36
  call void @llvm.lifetime.start.p0(i64 4, ptr %4) #8
  call void @llvm.lifetime.start.p0(i64 8, ptr %5) #8
  store ptr null, ptr %5, align 8, !tbaa !37
  call void @llvm.lifetime.start.p0(i64 8, ptr %6) #8
  store ptr null, ptr %6, align 8, !tbaa !39
  call void @llvm.lifetime.start.p0(i64 4, ptr %7) #8
  store i32 0, ptr %7, align 4, !tbaa !41
  %17 = load ptr, ptr %2, align 8, !tbaa !8
  %18 = getelementptr inbounds nuw %struct.quic_port_st, ptr %17, i32 0, i32 0
  %19 = load ptr, ptr %18, align 8, !tbaa !15
  %20 = icmp eq ptr %19, null
  br i1 %20, label %26, label %21

21:                                               ; preds = %1
  %22 = load ptr, ptr %2, align 8, !tbaa !8
  %23 = getelementptr inbounds nuw %struct.quic_port_st, ptr %22, i32 0, i32 4
  %24 = load ptr, ptr %23, align 8, !tbaa !29
  %25 = icmp eq ptr %24, null
  br i1 %25, label %26, label %27

26:                                               ; preds = %21, %1
  br label %150

27:                                               ; preds = %21
  %28 = call ptr @OSSL_ERR_STATE_new()
  %29 = load ptr, ptr %2, align 8, !tbaa !8
  %30 = getelementptr inbounds nuw %struct.quic_port_st, ptr %29, i32 0, i32 13
  store ptr %28, ptr %30, align 8, !tbaa !42
  %31 = icmp eq ptr %28, null
  br i1 %31, label %32, label %33

32:                                               ; preds = %27
  br label %150

33:                                               ; preds = %27
  %34 = load i64, ptr %3, align 8, !tbaa !36
  %35 = load ptr, ptr %2, align 8, !tbaa !8
  %36 = call ptr @ossl_quic_demux_new(ptr noundef null, i64 noundef %34, ptr noundef @get_time, ptr noundef %35)
  %37 = load ptr, ptr %2, align 8, !tbaa !8
  %38 = getelementptr inbounds nuw %struct.quic_port_st, ptr %37, i32 0, i32 7
  store ptr %36, ptr %38, align 8, !tbaa !43
  %39 = icmp eq ptr %36, null
  br i1 %39, label %40, label %41

40:                                               ; preds = %33
  br label %150

41:                                               ; preds = %33
  %42 = load ptr, ptr %2, align 8, !tbaa !8
  %43 = getelementptr inbounds nuw %struct.quic_port_st, ptr %42, i32 0, i32 7
  %44 = load ptr, ptr %43, align 8, !tbaa !43
  %45 = load ptr, ptr %2, align 8, !tbaa !8
  call void @ossl_quic_demux_set_default_handler(ptr noundef %44, ptr noundef @port_default_packet_handler, ptr noundef %45)
  %46 = load ptr, ptr %2, align 8, !tbaa !8
  %47 = getelementptr inbounds nuw %struct.quic_port_st, ptr %46, i32 0, i32 0
  %48 = load ptr, ptr %47, align 8, !tbaa !15
  %49 = getelementptr inbounds nuw %struct.quic_engine_st, ptr %48, i32 0, i32 0
  %50 = load ptr, ptr %49, align 8, !tbaa !44
  %51 = load ptr, ptr %2, align 8, !tbaa !8
  %52 = getelementptr inbounds nuw %struct.quic_port_st, ptr %51, i32 0, i32 0
  %53 = load ptr, ptr %52, align 8, !tbaa !15
  %54 = getelementptr inbounds nuw %struct.quic_engine_st, ptr %53, i32 0, i32 1
  %55 = load ptr, ptr %54, align 8, !tbaa !54
  %56 = call ptr @ossl_quic_srtm_new(ptr noundef %50, ptr noundef %55)
  %57 = load ptr, ptr %2, align 8, !tbaa !8
  %58 = getelementptr inbounds nuw %struct.quic_port_st, ptr %57, i32 0, i32 12
  store ptr %56, ptr %58, align 8, !tbaa !55
  %59 = icmp eq ptr %56, null
  br i1 %59, label %60, label %61

60:                                               ; preds = %41
  br label %150

61:                                               ; preds = %41
  %62 = load ptr, ptr %2, align 8, !tbaa !8
  %63 = getelementptr inbounds nuw %struct.quic_port_st, ptr %62, i32 0, i32 0
  %64 = load ptr, ptr %63, align 8, !tbaa !15
  %65 = getelementptr inbounds nuw %struct.quic_engine_st, ptr %64, i32 0, i32 0
  %66 = load ptr, ptr %65, align 8, !tbaa !44
  %67 = load i64, ptr %3, align 8, !tbaa !36
  %68 = call ptr @ossl_quic_lcidm_new(ptr noundef %66, i64 noundef %67)
  %69 = load ptr, ptr %2, align 8, !tbaa !8
  %70 = getelementptr inbounds nuw %struct.quic_port_st, ptr %69, i32 0, i32 11
  store ptr %68, ptr %70, align 8, !tbaa !56
  %71 = icmp eq ptr %68, null
  br i1 %71, label %72, label %73

72:                                               ; preds = %61
  br label %150

73:                                               ; preds = %61
  %74 = load i64, ptr %3, align 8, !tbaa !36
  %75 = trunc i64 %74 to i8
  %76 = load ptr, ptr %2, align 8, !tbaa !8
  %77 = getelementptr inbounds nuw %struct.quic_port_st, ptr %76, i32 0, i32 14
  store i8 %75, ptr %77, align 8, !tbaa !57
  %78 = load ptr, ptr %2, align 8, !tbaa !8
  %79 = getelementptr inbounds nuw %struct.quic_port_st, ptr %78, i32 0, i32 15
  store i8 8, ptr %79, align 1, !tbaa !58
  %80 = load ptr, ptr %2, align 8, !tbaa !8
  %81 = getelementptr inbounds nuw %struct.quic_port_st, ptr %80, i32 0, i32 16
  %82 = load i16, ptr %81, align 2
  %83 = and i16 %82, -2
  %84 = or i16 %83, 0
  store i16 %84, ptr %81, align 2
  %85 = load ptr, ptr %2, align 8, !tbaa !8
  %86 = getelementptr inbounds nuw %struct.quic_port_st, ptr %85, i32 0, i32 0
  %87 = load ptr, ptr %86, align 8, !tbaa !15
  %88 = getelementptr inbounds nuw %struct.quic_engine_st, ptr %87, i32 0, i32 6
  %89 = load ptr, ptr %2, align 8, !tbaa !8
  call void @ossl_list_port_insert_tail(ptr noundef %88, ptr noundef %89)
  %90 = load ptr, ptr %2, align 8, !tbaa !8
  %91 = getelementptr inbounds nuw %struct.quic_port_st, ptr %90, i32 0, i32 16
  %92 = load i16, ptr %91, align 2
  %93 = and i16 %92, -33
  %94 = or i16 %93, 32
  store i16 %94, ptr %91, align 2
  %95 = load ptr, ptr %2, align 8, !tbaa !8
  %96 = getelementptr inbounds nuw %struct.quic_port_st, ptr %95, i32 0, i32 16
  %97 = load i16, ptr %96, align 2
  %98 = and i16 %97, -257
  %99 = or i16 %98, 256
  store i16 %99, ptr %96, align 2
  %100 = call ptr @EVP_CIPHER_CTX_new()
  %101 = load ptr, ptr %2, align 8, !tbaa !8
  %102 = getelementptr inbounds nuw %struct.quic_port_st, ptr %101, i32 0, i32 17
  store ptr %100, ptr %102, align 8, !tbaa !59
  %103 = icmp eq ptr %100, null
  br i1 %103, label %148, label %104

104:                                              ; preds = %73
  %105 = load ptr, ptr %2, align 8, !tbaa !8
  %106 = getelementptr inbounds nuw %struct.quic_port_st, ptr %105, i32 0, i32 0
  %107 = load ptr, ptr %106, align 8, !tbaa !15
  %108 = getelementptr inbounds nuw %struct.quic_engine_st, ptr %107, i32 0, i32 0
  %109 = load ptr, ptr %108, align 8, !tbaa !44
  %110 = call ptr @EVP_CIPHER_fetch(ptr noundef %109, ptr noundef @.str.2, ptr noundef null)
  store ptr %110, ptr %5, align 8, !tbaa !37
  %111 = icmp eq ptr %110, null
  br i1 %111, label %148, label %112

112:                                              ; preds = %104
  %113 = load ptr, ptr %2, align 8, !tbaa !8
  %114 = getelementptr inbounds nuw %struct.quic_port_st, ptr %113, i32 0, i32 17
  %115 = load ptr, ptr %114, align 8, !tbaa !59
  %116 = load ptr, ptr %5, align 8, !tbaa !37
  %117 = call i32 @EVP_EncryptInit_ex(ptr noundef %115, ptr noundef %116, ptr noundef null, ptr noundef null, ptr noundef null)
  %118 = icmp ne i32 %117, 0
  br i1 %118, label %119, label %148

119:                                              ; preds = %112
  %120 = load ptr, ptr %2, align 8, !tbaa !8
  %121 = getelementptr inbounds nuw %struct.quic_port_st, ptr %120, i32 0, i32 17
  %122 = load ptr, ptr %121, align 8, !tbaa !59
  %123 = call i32 @EVP_CIPHER_CTX_get_key_length(ptr noundef %122)
  store i32 %123, ptr %4, align 4, !tbaa !41
  %124 = icmp sle i32 %123, 0
  br i1 %124, label %148, label %125

125:                                              ; preds = %119
  %126 = load i32, ptr %4, align 4, !tbaa !41
  %127 = sext i32 %126 to i64
  %128 = call noalias ptr @CRYPTO_malloc(i64 noundef %127, ptr noundef @.str, i32 noundef 176)
  store ptr %128, ptr %6, align 8, !tbaa !39
  %129 = icmp eq ptr %128, null
  br i1 %129, label %148, label %130

130:                                              ; preds = %125
  %131 = load ptr, ptr %2, align 8, !tbaa !8
  %132 = getelementptr inbounds nuw %struct.quic_port_st, ptr %131, i32 0, i32 0
  %133 = load ptr, ptr %132, align 8, !tbaa !15
  %134 = getelementptr inbounds nuw %struct.quic_engine_st, ptr %133, i32 0, i32 0
  %135 = load ptr, ptr %134, align 8, !tbaa !44
  %136 = load ptr, ptr %6, align 8, !tbaa !39
  %137 = load i32, ptr %4, align 4, !tbaa !41
  %138 = sext i32 %137 to i64
  %139 = call i32 @RAND_bytes_ex(ptr noundef %135, ptr noundef %136, i64 noundef %138, i32 noundef 0)
  %140 = icmp ne i32 %139, 0
  br i1 %140, label %141, label %148

141:                                              ; preds = %130
  %142 = load ptr, ptr %2, align 8, !tbaa !8
  %143 = getelementptr inbounds nuw %struct.quic_port_st, ptr %142, i32 0, i32 17
  %144 = load ptr, ptr %143, align 8, !tbaa !59
  %145 = load ptr, ptr %6, align 8, !tbaa !39
  %146 = call i32 @EVP_EncryptInit_ex(ptr noundef %144, ptr noundef null, ptr noundef null, ptr noundef %145, ptr noundef null)
  %147 = icmp ne i32 %146, 0
  br i1 %147, label %149, label %148

148:                                              ; preds = %141, %130, %125, %119, %112, %104, %73
  br label %150

149:                                              ; preds = %141
  store i32 1, ptr %7, align 4, !tbaa !41
  br label %150

150:                                              ; preds = %149, %148, %72, %60, %40, %32, %26
  %151 = load ptr, ptr %5, align 8, !tbaa !37
  call void @EVP_CIPHER_free(ptr noundef %151)
  %152 = load ptr, ptr %6, align 8, !tbaa !39
  call void @CRYPTO_free(ptr noundef %152, ptr noundef @.str, i32 noundef 184)
  %153 = load i32, ptr %7, align 4, !tbaa !41
  %154 = icmp ne i32 %153, 0
  br i1 %154, label %157, label %155

155:                                              ; preds = %150
  %156 = load ptr, ptr %2, align 8, !tbaa !8
  call void @port_cleanup(ptr noundef %156)
  br label %157

157:                                              ; preds = %155, %150
  %158 = load i32, ptr %7, align 4, !tbaa !41
  call void @llvm.lifetime.end.p0(i64 4, ptr %7) #8
  call void @llvm.lifetime.end.p0(i64 8, ptr %6) #8
  call void @llvm.lifetime.end.p0(i64 8, ptr %5) #8
  call void @llvm.lifetime.end.p0(i64 4, ptr %4) #8
  call void @llvm.lifetime.end.p0(i64 8, ptr %3) #8
  ret i32 %158
}

; Function Attrs: nounwind uwtable
define ptr @ossl_quic_port_new(ptr noundef %0) #0 {
  %2 = alloca ptr, align 8
  %3 = alloca ptr, align 8
  %4 = alloca ptr, align 8
  %5 = alloca i32, align 4
  store ptr %0, ptr %3, align 8, !tbaa !3
  call void @llvm.lifetime.start.p0(i64 8, ptr %4) #8
  %6 = call noalias ptr @CRYPTO_zalloc(i64 noundef 168, ptr noundef @.str, i32 noundef 104)
  store ptr %6, ptr %4, align 8, !tbaa !8
  %7 = icmp eq ptr %6, null
  br i1 %7, label %8, label %9

8:                                                ; preds = %1
  store ptr null, ptr %2, align 8
  store i32 1, ptr %5, align 4
  br label %59

9:                                                ; preds = %1
  %10 = load ptr, ptr %3, align 8, !tbaa !3
  %11 = getelementptr inbounds nuw %struct.quic_port_args_st, ptr %10, i32 0, i32 0
  %12 = load ptr, ptr %11, align 8, !tbaa !10
  %13 = load ptr, ptr %4, align 8, !tbaa !8
  %14 = getelementptr inbounds nuw %struct.quic_port_st, ptr %13, i32 0, i32 0
  store ptr %12, ptr %14, align 8, !tbaa !15
  %15 = load ptr, ptr %3, align 8, !tbaa !3
  %16 = getelementptr inbounds nuw %struct.quic_port_args_st, ptr %15, i32 0, i32 3
  %17 = load ptr, ptr %16, align 8, !tbaa !28
  %18 = load ptr, ptr %4, align 8, !tbaa !8
  %19 = getelementptr inbounds nuw %struct.quic_port_st, ptr %18, i32 0, i32 4
  store ptr %17, ptr %19, align 8, !tbaa !29
  %20 = load ptr, ptr %3, align 8, !tbaa !3
  %21 = getelementptr inbounds nuw %struct.quic_port_args_st, ptr %20, i32 0, i32 4
  %22 = load i32, ptr %21, align 8, !tbaa !30
  %23 = load ptr, ptr %4, align 8, !tbaa !8
  %24 = getelementptr inbounds nuw %struct.quic_port_st, ptr %23, i32 0, i32 16
  %25 = trunc i32 %22 to i16
  %26 = load i16, ptr %24, align 2
  %27 = and i16 %25, 1
  %28 = shl i16 %27, 1
  %29 = and i16 %26, -3
  %30 = or i16 %29, %28
  store i16 %30, ptr %24, align 2
  %31 = load ptr, ptr %3, align 8, !tbaa !3
  %32 = getelementptr inbounds nuw %struct.quic_port_args_st, ptr %31, i32 0, i32 5
  %33 = load i32, ptr %32, align 4, !tbaa !31
  %34 = load ptr, ptr %4, align 8, !tbaa !8
  %35 = getelementptr inbounds nuw %struct.quic_port_st, ptr %34, i32 0, i32 16
  %36 = trunc i32 %33 to i16
  %37 = load i16, ptr %35, align 2
  %38 = and i16 %36, 1
  %39 = shl i16 %38, 2
  %40 = and i16 %37, -5
  %41 = or i16 %40, %39
  store i16 %41, ptr %35, align 2
  %42 = load ptr, ptr %3, align 8, !tbaa !3
  %43 = getelementptr inbounds nuw %struct.quic_port_args_st, ptr %42, i32 0, i32 1
  %44 = load ptr, ptr %43, align 8, !tbaa !32
  %45 = load ptr, ptr %4, align 8, !tbaa !8
  %46 = getelementptr inbounds nuw %struct.quic_port_st, ptr %45, i32 0, i32 2
  store ptr %44, ptr %46, align 8, !tbaa !33
  %47 = load ptr, ptr %3, align 8, !tbaa !3
  %48 = getelementptr inbounds nuw %struct.quic_port_args_st, ptr %47, i32 0, i32 2
  %49 = load ptr, ptr %48, align 8, !tbaa !34
  %50 = load ptr, ptr %4, align 8, !tbaa !8
  %51 = getelementptr inbounds nuw %struct.quic_port_st, ptr %50, i32 0, i32 3
  store ptr %49, ptr %51, align 8, !tbaa !35
  %52 = load ptr, ptr %4, align 8, !tbaa !8
  %53 = call i32 @port_init(ptr noundef %52)
  %54 = icmp ne i32 %53, 0
  br i1 %54, label %57, label %55

55:                                               ; preds = %9
  %56 = load ptr, ptr %4, align 8, !tbaa !8
  call void @CRYPTO_free(ptr noundef %56, ptr noundef @.str, i32 noundef 115)
  store ptr null, ptr %2, align 8
  store i32 1, ptr %5, align 4
  br label %59

57:                                               ; preds = %9
  %58 = load ptr, ptr %4, align 8, !tbaa !8
  store ptr %58, ptr %2, align 8
  store i32 1, ptr %5, align 4
  br label %59

59:                                               ; preds = %57, %55, %8
  call void @llvm.lifetime.end.p0(i64 8, ptr %4) #8
  %60 = load ptr, ptr %2, align 8
  ret ptr %60
}