; Function Attrs: nounwind uwtable
define ptr @ossl_quic_port_new(ptr noundef readonly captures(none) %0) local_unnamed_addr #0 {
  %2 = tail call noalias ptr @CRYPTO_zalloc(i64 noundef 168, ptr noundef nonnull @.str, i32 noundef 104) #11
  %3 = icmp eq ptr %2, null
  br i1 %3, label %.critedge, label %4

4:                                                ; preds = %1
  %5 = load ptr, ptr %0, align 8, !tbaa !3
  store ptr %5, ptr %2, align 8, !tbaa !11
  %6 = getelementptr inbounds nuw i8, ptr %0, i64 24
  %7 = load ptr, ptr %6, align 8, !tbaa !25
  %8 = getelementptr inbounds nuw i8, ptr %2, i64 40
  store ptr %7, ptr %8, align 8, !tbaa !26
  %9 = getelementptr inbounds nuw i8, ptr %0, i64 32
  %10 = load i32, ptr %9, align 8, !tbaa !27
  %11 = getelementptr inbounds nuw i8, ptr %2, i64 154
  %12 = trunc i32 %10 to i16
  %13 = load i16, ptr %11, align 2
  %14 = shl i16 %12, 1
  %15 = and i16 %14, 2
  %16 = and i16 %13, -7
  %17 = getelementptr inbounds nuw i8, ptr %0, i64 36
  %18 = load i32, ptr %17, align 4, !tbaa !28
  %19 = trunc i32 %18 to i16
  %20 = shl i16 %19, 2
  %21 = and i16 %20, 4
  %22 = or disjoint i16 %16, %21
  %23 = or disjoint i16 %22, %15
  store i16 %23, ptr %11, align 2
  %24 = getelementptr inbounds nuw i8, ptr %0, i64 8
  %25 = load ptr, ptr %24, align 8, !tbaa !29
  %26 = getelementptr inbounds nuw i8, ptr %2, i64 24
  store ptr %25, ptr %26, align 8, !tbaa !30
  %27 = getelementptr inbounds nuw i8, ptr %0, i64 16
  %28 = load ptr, ptr %27, align 8, !tbaa !31
  %29 = getelementptr inbounds nuw i8, ptr %2, i64 32
  store ptr %28, ptr %29, align 8, !tbaa !32
  %30 = shl nuw nsw i16 %15, 2
  %31 = zext nneg i16 %30 to i64
  %32 = icmp eq ptr %5, null
  %33 = icmp eq ptr %7, null
  %or.cond = select i1 %32, i1 true, i1 %33
  br i1 %or.cond, label %port_init.exit.critedge, label %34

34:                                               ; preds = %4
  %35 = tail call ptr @OSSL_ERR_STATE_new() #11
  %36 = getelementptr inbounds nuw i8, ptr %2, i64 144
  store ptr %35, ptr %36, align 8, !tbaa !33
  %37 = icmp eq ptr %35, null
  br i1 %37, label %port_init.exit.critedge, label %38

38:                                               ; preds = %34
  %39 = tail call ptr @ossl_quic_demux_new(ptr noundef null, i64 noundef %31, ptr noundef nonnull @get_time, ptr noundef nonnull %2) #11
  %40 = getelementptr inbounds nuw i8, ptr %2, i64 64
  store ptr %39, ptr %40, align 8, !tbaa !34
  %41 = icmp eq ptr %39, null
  br i1 %41, label %port_init.exit.critedge, label %42

42:                                               ; preds = %38
  tail call void @ossl_quic_demux_set_default_handler(ptr noundef nonnull %39, ptr noundef nonnull @port_default_packet_handler, ptr noundef nonnull %2) #11
  %43 = load ptr, ptr %2, align 8, !tbaa !11
  %44 = load ptr, ptr %43, align 8, !tbaa !35
  %45 = getelementptr inbounds nuw i8, ptr %43, i64 8
  %46 = load ptr, ptr %45, align 8, !tbaa !46
  %47 = tail call ptr @ossl_quic_srtm_new(ptr noundef %44, ptr noundef %46) #11
  %48 = getelementptr inbounds nuw i8, ptr %2, i64 136
  store ptr %47, ptr %48, align 8, !tbaa !47
  %49 = icmp eq ptr %47, null
  br i1 %49, label %port_init.exit.critedge, label %50

50:                                               ; preds = %42
  %51 = load ptr, ptr %2, align 8, !tbaa !11
  %52 = load ptr, ptr %51, align 8, !tbaa !35
  %53 = tail call ptr @ossl_quic_lcidm_new(ptr noundef %52, i64 noundef %31) #11
  %54 = getelementptr inbounds nuw i8, ptr %2, i64 128
  store ptr %53, ptr %54, align 8, !tbaa !48
  %55 = icmp eq ptr %53, null
  br i1 %55, label %port_init.exit.critedge, label %56

56:                                               ; preds = %50
  %57 = trunc nuw nsw i16 %30 to i8
  %58 = getelementptr inbounds nuw i8, ptr %2, i64 152
  store i8 %57, ptr %58, align 8, !tbaa !49
  %59 = getelementptr inbounds nuw i8, ptr %2, i64 153
  store i8 8, ptr %59, align 1, !tbaa !50
  %60 = load i16, ptr %11, align 2
  %61 = and i16 %60, -2
  store i16 %61, ptr %11, align 2
  %62 = load ptr, ptr %2, align 8, !tbaa !11
  %63 = getelementptr inbounds nuw i8, ptr %62, i64 136
  %64 = getelementptr inbounds nuw i8, ptr %62, i64 144
  %65 = load ptr, ptr %64, align 8, !tbaa !51
  %.not.i.i = icmp eq ptr %65, null
  br i1 %.not.i.i, label %68, label %66

66:                                               ; preds = %56
  %67 = getelementptr inbounds nuw i8, ptr %65, i64 8
  store ptr %2, ptr %67, align 8, !tbaa !52
  br label %68

68:                                               ; preds = %66, %56
  %69 = getelementptr inbounds nuw i8, ptr %2, i64 8
  %70 = getelementptr inbounds nuw i8, ptr %2, i64 16
  store ptr %65, ptr %70, align 8, !tbaa !53
  store ptr null, ptr %69, align 8, !tbaa !52
  store ptr %2, ptr %64, align 8, !tbaa !51
  %71 = load ptr, ptr %63, align 8, !tbaa !54
  %72 = icmp eq ptr %71, null
  br i1 %72, label %73, label %ossl_list_port_insert_tail.exit.i

73:                                               ; preds = %68
  store ptr %2, ptr %63, align 8, !tbaa !54
  br label %ossl_list_port_insert_tail.exit.i

ossl_list_port_insert_tail.exit.i:                ; preds = %73, %68
  %74 = getelementptr inbounds nuw i8, ptr %62, i64 152
  %75 = load i64, ptr %74, align 8, !tbaa !55
  %76 = add i64 %75, 1
  store i64 %76, ptr %74, align 8, !tbaa !55
  %77 = load i16, ptr %11, align 2
  %78 = or i16 %77, 288
  store i16 %78, ptr %11, align 2
  %79 = tail call ptr @EVP_CIPHER_CTX_new() #11
  %80 = getelementptr inbounds nuw i8, ptr %2, i64 160
  store ptr %79, ptr %80, align 8, !tbaa !56
  %81 = icmp eq ptr %79, null
  br i1 %81, label %port_init.exit.critedge, label %82

82:                                               ; preds = %ossl_list_port_insert_tail.exit.i
  %83 = load ptr, ptr %2, align 8, !tbaa !11
  %84 = load ptr, ptr %83, align 8, !tbaa !35
  %85 = tail call ptr @EVP_CIPHER_fetch(ptr noundef %84, ptr noundef nonnull @.str.2, ptr noundef null) #11
  %86 = icmp eq ptr %85, null
  br i1 %86, label %port_init.exit.critedge, label %87

87:                                               ; preds = %82
  %88 = load ptr, ptr %80, align 8, !tbaa !56
  %89 = tail call i32 @EVP_EncryptInit_ex(ptr noundef %88, ptr noundef nonnull %85, ptr noundef null, ptr noundef null, ptr noundef null) #11
  %.not.i = icmp eq i32 %89, 0
  br i1 %.not.i, label %port_init.exit.critedge, label %90

90:                                               ; preds = %87
  %91 = load ptr, ptr %80, align 8, !tbaa !56
  %92 = tail call i32 @EVP_CIPHER_CTX_get_key_length(ptr noundef %91) #11
  %93 = icmp slt i32 %92, 1
  br i1 %93, label %port_init.exit.critedge, label %94

94:                                               ; preds = %90
  %95 = zext nneg i32 %92 to i64
  %96 = tail call noalias ptr @CRYPTO_malloc(i64 noundef %95, ptr noundef nonnull @.str, i32 noundef 176) #11
  %97 = icmp eq ptr %96, null
  br i1 %97, label %port_init.exit.critedge, label %98

98:                                               ; preds = %94
  %99 = load ptr, ptr %2, align 8, !tbaa !11
  %100 = load ptr, ptr %99, align 8, !tbaa !35
  %101 = tail call i32 @RAND_bytes_ex(ptr noundef %100, ptr noundef nonnull %96, i64 noundef %95, i32 noundef 0) #11
  %.not45.i = icmp eq i32 %101, 0
  br i1 %.not45.i, label %port_init.exit.critedge, label %102

102:                                              ; preds = %98
  %103 = load ptr, ptr %80, align 8, !tbaa !56
  %104 = tail call i32 @EVP_EncryptInit_ex(ptr noundef %103, ptr noundef null, ptr noundef null, ptr noundef nonnull %96, ptr noundef null) #11
  %.not46.i = icmp eq i32 %104, 0
  tail call void @EVP_CIPHER_free(ptr noundef nonnull %85) #11
  tail call void @CRYPTO_free(ptr noundef nonnull %96, ptr noundef nonnull @.str, i32 noundef 184) #11
  br i1 %.not46.i, label %port_init.exit, label %.critedge

port_init.exit.critedge:                          ; preds = %87, %98, %94, %90, %82, %ossl_list_port_insert_tail.exit.i, %50, %42, %38, %34, %4
  %.039.i.ph = phi ptr [ %85, %87 ], [ %85, %98 ], [ %85, %94 ], [ %85, %90 ], [ null, %82 ], [ null, %ossl_list_port_insert_tail.exit.i ], [ null, %50 ], [ null, %42 ], [ null, %38 ], [ null, %34 ], [ null, %4 ]
  %.038.i.ph = phi ptr [ null, %87 ], [ %96, %98 ], [ null, %94 ], [ null, %90 ], [ null, %82 ], [ null, %ossl_list_port_insert_tail.exit.i ], [ null, %50 ], [ null, %42 ], [ null, %38 ], [ null, %34 ], [ null, %4 ]
  tail call void @EVP_CIPHER_free(ptr noundef %.039.i.ph) #11
  tail call void @CRYPTO_free(ptr noundef %.038.i.ph, ptr noundef nonnull @.str, i32 noundef 184) #11
  br label %port_init.exit

port_init.exit:                                   ; preds = %port_init.exit.critedge, %102
  tail call fastcc void @port_cleanup(ptr noundef nonnull %2)
  tail call void @CRYPTO_free(ptr noundef nonnull %2, ptr noundef nonnull @.str, i32 noundef 115) #11
  br label %.critedge

.critedge:                                        ; preds = %102, %1, %port_init.exit
  %.0 = phi ptr [ null, %port_init.exit ], [ null, %1 ], [ %2, %102 ]
  ret ptr %.0
}